; Function Attrs: mustprogress nounwind uwtable
define hidden void @_ZN4cvc58internal6theory11quantifiers13EqualityQueryD2Ev(ptr noundef nonnull align 8 dereferenceable(184) %this) unnamed_addr #4 align 2 personality ptr @__gxx_personality_v0 {
entry:
  store ptr getelementptr inbounds ({ [9 x ptr] }, ptr @_ZTVN4cvc58internal6theory11quantifiers13EqualityQueryE, i64 0, i32 0, i64 2), ptr %this, align 8
  %d_rep_score = getelementptr inbounds i8, ptr %this, i64 128
  %_M_parent.i.i.i.i = getelementptr inbounds i8, ptr %this, i64 144
  %0 = load ptr, ptr %_M_parent.i.i.i.i, align 8
  invoke void @_ZNSt8_Rb_treeIN4cvc58internal12NodeTemplateILb1EEESt4pairIKS3_iESt10_Select1stIS6_ESt4lessIS3_ESaIS6_EE8_M_eraseEPSt13_Rb_tree_nodeIS6_E(ptr noundef nonnull align 8 dereferenceable(48) %d_rep_score, ptr noundef %0)
          to label %_ZNSt3mapIN4cvc58internal12NodeTemplateILb1EEEiSt4lessIS3_ESaISt4pairIKS3_iEEED2Ev.exit unwind label %terminate.lpad.i.i

terminate.lpad.i.i:                               ; preds = %entry
  %1 = landingpad { ptr, i32 }
          catch ptr null
  %2 = extractvalue { ptr, i32 } %1, 0
  tail call void @__clang_call_terminate(ptr %2) #18
  unreachable

_ZNSt3mapIN4cvc58internal12NodeTemplateILb1EEEiSt4lessIS3_ESaISt4pairIKS3_iEEED2Ev.exit: ; preds = %entry
  %d_int_rep = getelementptr inbounds i8, ptr %this, i64 80
  %_M_parent.i.i.i.i1 = getelementptr inbounds i8, ptr %this, i64 96
  %3 = load ptr, ptr %_M_parent.i.i.i.i1, align 8
  invoke void @_ZNSt8_Rb_treeIN4cvc58internal8TypeNodeESt4pairIKS2_St3mapINS1_12NodeTemplateILb1EEES7_St4lessIS7_ESaIS3_IKS7_S7_EEEESt10_Select1stISE_ES8_IS2_ESaISE_EE8_M_eraseEPSt13_Rb_tree_nodeISE_E(ptr noundef nonnull align 8 dereferenceable(48) %d_int_rep, ptr noundef %3)
          to label %_ZNSt3mapIN4cvc58internal8TypeNodeES_INS1_12NodeTemplateILb1EEES4_St4lessIS4_ESaISt4pairIKS4_S4_EEES5_IS2_ESaIS7_IKS2_SB_EEED2Ev.exit unwind label %terminate.lpad.i.i2

terminate.lpad.i.i2:                              ; preds = %_ZNSt3mapIN4cvc58internal12NodeTemplateILb1EEEiSt4lessIS3_ESaISt4pairIKS3_iEEED2Ev.exit
  %4 = landingpad { ptr, i32 }
          catch ptr null
  %5 = extractvalue { ptr, i32 } %4, 0
  tail call void @__clang_call_terminate(ptr %5) #18
  unreachable

_ZNSt3mapIN4cvc58internal8TypeNodeES_INS1_12NodeTemplateILb1EEES4_St4lessIS4_ESaISt4pairIKS4_S4_EEES5_IS2_ESaIS7_IKS2_SB_EEED2Ev.exit: ; preds = %_ZNSt3mapIN4cvc58internal12NodeTemplateILb1EEEiSt4lessIS3_ESaISt4pairIKS3_iEEED2Ev.exit
  %d_eqi_counter = getelementptr inbounds i8, ptr %this, i64 32
  store ptr getelementptr inbounds ({ [6 x ptr] }, ptr @_ZTVN4cvc57context3CDOIjEE, i64 0, i32 0, i64 2), ptr %d_eqi_counter, align 8
  invoke void @_ZN4cvc57context10ContextObj7destroyEv(ptr noundef nonnull align 8 dereferenceable(40) %d_eqi_counter)
          to label %_ZN4cvc57context3CDOIjED2Ev.exit unwind label %terminate.lpad.i

terminate.lpad.i:                                 ; preds = %_ZNSt3mapIN4cvc58internal8TypeNodeES_INS1_12NodeTemplateILb1EEES4_St4lessIS4_ESaISt4pairIKS4_S4_EEES5_IS2_ESaIS7_IKS2_SB_EEED2Ev.exit
  %6 = landingpad { ptr, i32 }
          catch ptr null
  %7 = extractvalue { ptr, i32 } %6, 0
  tail call void @__clang_call_terminate(ptr %7) #18
  unreachable

_ZN4cvc57context3CDOIjED2Ev.exit:                 ; preds = %_ZNSt3mapIN4cvc58internal8TypeNodeES_INS1_12NodeTemplateILb1EEES4_St4lessIS4_ESaISt4pairIKS4_S4_EEES5_IS2_ESaIS7_IKS2_SB_EEED2Ev.exit
  ret void
}